Certificate:
    Data:
        Version: 3 (0x2)
        Serial Number:
            12:41:23:36:79
        Signature Algorithm: md5WithRSAEncryption
        Issuer: O=JBoss QE, OU=WFK QE/emailAddress=whatever@wherever.com, L=Brno, ST=Jihomoravsky kraj, C=CZ, CN=WFK QE CA
        Validity
            Not Before: Aug 27 17:34:12 2014 GMT
            Not After : Aug 24 17:34:12 2024 GMT
        Subject: C=CZ, ST=Jihomoravsky kraj, L=Brno, O=JBoss QE, OU=WFK QE, CN=WFK QE CA
        Subject Public Key Info:
            Public Key Algorithm: rsaEncryption
            RSA Public Key: (1024 bit)
                Modulus (1024 bit):
                    00:b9:e7:46:00:27:e4:49:ab:e5:18:c2:3f:1a:df:
                    74:99:02:f4:c4:ce:05:be:00:d3:53:f8:58:c4:48:
                    e4:7a:10:e8:c7:d8:15:07:f5:85:83:c4:77:5e:52:
                    e6:4d:9c:0c:0f:c5:94:f6:56:49:83:f3:be:92:8e:
                    92:7d:3f:bb:a9:69:2a:e4:dd:2e:a2:36:e2:c7:54:
                    df:2a:5a:77:b4:8b:8f:ff:8d:5b:c7:74:71:90:ba:
                    61:bd:43:1f:38:9a:05:b5:23:c6:1a:e2:79:3d:d1:
                    1f:1a:d5:ff:62:61:90:f0:94:10:a0:94:a0:5a:df:
                    9c:12:10:29:81:19:d4:5e:5b
                Exponent: 65537 (0x10001)
        X509v3 extensions:
            X509v3 Basic Constraints: 
                CA:FALSE
            X509v3 Subject Key Identifier: 
                4A:58:51:F1:E9:39:4D:25:6E:6F:1C:16:47:18:94:8B:3B:FA:1A:DA
            X509v3 Extended Key Usage: 
                TLS Web Client Authentication
            X509v3 Subject Alternative Name: 
                DNS:localhost, IP Address:127.0.0.1
    Signature Algorithm: md5WithRSAEncryption
        9e:bf:7e:a6:f9:1c:1f:f3:92:6f:15:14:03:0e:6d:92:7f:72:
        a2:9b:8e:38:fb:11:81:ce:c9:3b:e8:b7:58:cd:a7:01:2f:f4:
        57:7b:5b:ed:e7:0a:6f:b6:b8:f4:d9:68:f7:7c:1d:71:4b:d6:
        37:6d:3f:e7:07:73:73:ed:21:53:ff:1c:4a:88:c2:82:81:88:
        e9:d1:91:f9:28:81:7e:8f:f8:6b:09:64:1f:ca:dc:48:da:64:
        b3:d7:1e:c7:78:8c:90:08:36:3a:d0:4f:7d:c6:c1:cd:2c:53:
        4f:dc:91:0f:81:5e:e5:d4:07:40:2f:fa:52:c6:98:79:50:ad:
        22:a7
-----BEGIN CERTIFICATE-----
MIIC3jCCAkegAwIBAgIFEkEjNnkwDQYJKoZIhvcNAQEEBQAwgZYxETAPBgNVBAoT
CEpCb3NzIFFFMQ8wDQYDVQQLEwZXRksgUUUxJDAiBgkqhkiG9w0BCQEWFXdoYXRl
dmVyQHdoZXJldmVyLmNvbTENMAsGA1UEBxMEQnJubzEaMBgGA1UECBMRSmlob21v
cmF2c2t5IGtyYWoxCzAJBgNVBAYTAkNaMRIwEAYDVQQDEwlXRksgUUUgQ0EwHhcN
MTQwODI3MTczNDEyWhcNMjQwODI0MTczNDEyWjBwMQswCQYDVQQGEwJDWjEaMBgG
A1UECBMRSmlob21vcmF2c2t5IGtyYWoxDTALBgNVBAcTBEJybm8xETAPBgNVBAoT
CEpCb3NzIFFFMQ8wDQYDVQQLEwZXRksgUUUxEjAQBgNVBAMTCVdGSyBRRSBDQTCB
nzANBgkqhkiG9w0BAQEFAAOBjQAwgYkCgYEAuedGACfkSavlGMI/Gt90mQL0xM4F
vgDTU/hYxEjkehDox9gVB/WFg8R3XlLmTZwMD8WU9lZJg/O+ko6SfT+7qWkq5N0u
ojbix1TfKlp3tIuP/41bx3RxkLphvUMfOJoFtSPGGuJ5PdEfGtX/YmGQ8JQQoJSg
Wt+cEhApgRnUXlsCAwEAAaNdMFswCQYDVR0TBAIwADAdBgNVHQ4EFgQUSlhR8ek5
TSVubxwWRxiUizv6GtowEwYDVR0lBAwwCgYIKwYBBQUHAwIwGgYDVR0RBBMwEYIJ
bG9jYWxob3N0hwR/AAABMA0GCSqGSIb3DQEBBAUAA4GBAJ6/fqb5HB/zkm8VFAMO
bZJ/cqKbjjj7EYHOyTvot1jNpwEv9Fd7W+3nCm+2uPTZaPd8HXFL1jdtP+cHc3Pt
IVP/HEqIwoKBiOnRkfkogX6P+GsJZB/K3EjaZLPXHsd4jJAINjrQT33Gwc0sU0/c
kQ+BXuXUB0Av+lLGmHlQrSKn
-----END CERTIFICATE-----
