Certificate:
    Data:
        Version: 1 (0x0)
        Serial Number:
            12:41:23:36:78
        Signature Algorithm: md5WithRSAEncryption
        Issuer: O=JBoss QE, OU=WFK QE/emailAddress=whatever@wherever.com, L=Brno, ST=Jihomoravsky kraj, C=CZ, CN=WFK QE CA
        Validity
            Not Before: Aug 27 17:30:58 2014 GMT
            Not After : Aug 24 17:30:58 2024 GMT
        Subject: C=CZ, L=Brno, O=JBoss QE, OU=WFK QE, CN=localhost
        Subject Public Key Info:
            Public Key Algorithm: dsaEncryption
            DSA Public Key:
                pub: 
                    18:ad:d5:20:6f:7c:f4:42:ce:38:9e:cf:ed:40:26:
                    57:5e:85:41:c8:f8:a9:40:8c:cf:71:c4:2a:c4:df:
                    3d:a0:24:3a:7c:a3:8b:6b:54:a3:c7:93:a8:f5:e2:
                    14:00:85:fb:c2:d9:09:d9:a0:90:fa:99:eb:00:83:
                    95:9f:03:0a:43:ba:38:77:2a:f7:40:d3:2c:75:52:
                    df:9b:23:c3:d7:2a:9f:61:c2:b3:6d:d4:99:b3:08:
                    0b:71:6b:66:b0:1c:13:fa:b1:14:6b:09:23:9b:3a:
                    80:df:68:9e:5f:83:be:25:f0:0d:6a:40:f3:50:cd:
                    40:3a:bb:97:1b:6d:05:7b
                P:   
                    00:fd:7f:53:81:1d:75:12:29:52:df:4a:9c:2e:ec:
                    e4:e7:f6:11:b7:52:3c:ef:44:00:c3:1e:3f:80:b6:
                    51:26:69:45:5d:40:22:51:fb:59:3d:8d:58:fa:bf:
                    c5:f5:ba:30:f6:cb:9b:55:6c:d7:81:3b:80:1d:34:
                    6f:f2:66:60:b7:6b:99:50:a5:a4:9f:9f:e8:04:7b:
                    10:22:c2:4f:bb:a9:d7:fe:b7:c6:1b:f8:3b:57:e7:
                    c6:a8:a6:15:0f:04:fb:83:f6:d3:c5:1e:c3:02:35:
                    54:13:5a:16:91:32:f6:75:f3:ae:2b:61:d7:2a:ef:
                    f2:22:03:19:9d:d1:48:01:c7
                Q:   
                    00:97:60:50:8f:15:23:0b:cc:b2:92:b9:82:a2:eb:
                    84:0b:f0:58:1c:f5
                G:   
                    00:f7:e1:a0:85:d6:9b:3d:de:cb:bc:ab:5c:36:b8:
                    57:b9:79:94:af:bb:fa:3a:ea:82:f9:57:4c:0b:3d:
                    07:82:67:51:59:57:8e:ba:d4:59:4f:e6:71:07:10:
                    81:80:b4:49:16:71:23:e8:4c:28:16:13:b7:cf:09:
                    32:8c:c8:a6:e1:3c:16:7a:8b:54:7c:8d:28:e0:a3:
                    ae:1e:2b:b3:a6:75:91:6e:a3:7f:0b:fa:21:35:62:
                    f1:fb:62:7a:01:24:3b:cc:a4:f1:be:a8:51:90:89:
                    a8:83:df:e1:5a:e5:9f:06:92:8b:66:5e:80:7b:55:
                    25:64:01:4c:3b:fe:cf:49:2a
    Signature Algorithm: md5WithRSAEncryption
        aa:3f:00:7f:a3:f9:fd:35:b4:df:21:e8:11:7e:30:2d:59:76:
        f5:69:06:92:43:24:07:a3:91:cd:31:99:86:d9:9f:98:c6:5c:
        25:03:f2:b1:06:97:dd:a1:d5:fa:af:b2:9d:62:5e:79:9d:91:
        60:90:f4:1c:61:6a:c8:fa:1e:5c:e2:8a:46:80:73:77:81:81:
        a5:2f:86:8e:22:40:dc:6d:fb:88:43:e9:0a:d3:73:7d:41:3d:
        2b:74:25:a9:c6:e4:09:eb:d2:00:58:15:c8:ce:4d:15:1b:62:
        f8:b0:9e:01:54:d0:23:74:50:30:2c:5c:cb:5b:43:35:eb:bf:
        15:1b
-----BEGIN CERTIFICATE-----
MIIDdzCCAuACBRJBIzZ4MA0GCSqGSIb3DQEBBAUAMIGWMREwDwYDVQQKEwhKQm9z
cyBRRTEPMA0GA1UECxMGV0ZLIFFFMSQwIgYJKoZIhvcNAQkBFhV3aGF0ZXZlckB3
aGVyZXZlci5jb20xDTALBgNVBAcTBEJybm8xGjAYBgNVBAgTEUppaG9tb3JhdnNr
eSBrcmFqMQswCQYDVQQGEwJDWjESMBAGA1UEAxMJV0ZLIFFFIENBMB4XDTE0MDgy
NzE3MzA1OFoXDTI0MDgyNDE3MzA1OFowVDELMAkGA1UEBhMCQ1oxDTALBgNVBAcT
BEJybm8xETAPBgNVBAoTCEpCb3NzIFFFMQ8wDQYDVQQLEwZXRksgUUUxEjAQBgNV
BAMTCWxvY2FsaG9zdDCCAbcwggEsBgcqhkjOOAQBMIIBHwKBgQD9f1OBHXUSKVLf
Spwu7OTn9hG3UjzvRADDHj+AtlEmaUVdQCJR+1k9jVj6v8X1ujD2y5tVbNeBO4Ad
NG/yZmC3a5lQpaSfn+gEexAiwk+7qdf+t8Yb+DtX58aophUPBPuD9tPFHsMCNVQT
WhaRMvZ1864rYdcq7/IiAxmd0UgBxwIVAJdgUI8VIwvMspK5gqLrhAvwWBz1AoGB
APfhoIXWmz3ey7yrXDa4V7l5lK+7+jrqgvlXTAs9B4JnUVlXjrrUWU/mcQcQgYC0
SRZxI+hMKBYTt88JMozIpuE8FnqLVHyNKOCjrh4rs6Z1kW6jfwv6ITVi8ftiegEk
O8yk8b6oUZCJqIPf4VrlnwaSi2ZegHtVJWQBTDv+z0kqA4GEAAKBgBit1SBvfPRC
zjiez+1AJldehUHI+KlAjM9xxCrE3z2gJDp8o4trVKPHk6j14hQAhfvC2QnZoJD6
mesAg5WfAwpDujh3KvdA0yx1Ut+bI8PXKp9hwrNt1JmzCAtxa2awHBP6sRRrCSOb
OoDfaJ5fg74l8A1qQPNQzUA6u5cbbQV7MA0GCSqGSIb3DQEBBAUAA4GBAKo/AH+j
+f01tN8h6BF+MC1ZdvVpBpJDJAejkc0xmYbZn5jGXCUD8rEGl92h1fqvsp1iXnmd
kWCQ9Bxhasj6HlziikaAc3eBgaUvho4iQNxt+4hD6QrTc31BPSt0JanG5Anr0gBY
FcjOTRUbYviwngFU0CN0UDAsXMtbQzXrvxUb
-----END CERTIFICATE-----
